; Function Attrs: mustprogress nofree norecurse nosync nounwind sspstrong willreturn memory(argmem: readwrite) uwtable
define internal noundef i32 @read_vlenb(ptr noundef readonly captures(none) %env, i32 %csrno, ptr noundef writeonly captures(none) initializes((0, 8)) %val) #4 {
entry:
  %vlen = getelementptr i8, ptr %env, i64 5288
  %0 = load i16, ptr %vlen, align 8
  %1 = lshr i16 %0, 3
  %conv1 = zext nneg i16 %1 to i64
  store i64 %conv1, ptr %val, align 8
  ret i32 -1
}